target datalayout = "e-m:e-p270:32:32-p271:32:32-p272:64:64-i64:64-i128:128-f80:128-n8:16:32:64-S128"
target triple = "x86_64-pc-linux-gnu"

%class.debug_module_t = type <{ %class.abstract_device_t, %struct.debug_module_config_t, i32, i32, i32, i32, ptr, [4 x i8], [48 x i8], [4 x i8], ptr, [8 x i8], %"class.std::vector", [1024 x i8], %struct.dmcontrol_t, %struct.dmstatus_t, %struct.abstractcs_t, %struct.abstractauto_t, i32, i16, [2 x i8], %"class.std::vector.0", %struct.sbcs_t, [4 x i32], [4 x i32], i32, i32, i8, [3 x i8], i32, [2 x i8], [2 x i8], i32, i32, [4 x i8] }>
%class.abstract_device_t = type { ptr }
%struct.debug_module_config_t = type <{ i32, i32, i8, [3 x i8], i32, i8, i8, i8, i8, i8, [3 x i8] }>
%"class.std::vector" = type { %"struct.std::_Vector_base" }
%"struct.std::_Vector_base" = type { %"struct.std::_Vector_base<hart_debug_state_t, std::allocator<hart_debug_state_t>>::_Vector_impl" }
%"struct.std::_Vector_base<hart_debug_state_t, std::allocator<hart_debug_state_t>>::_Vector_impl" = type { %"struct.std::_Vector_base<hart_debug_state_t, std::allocator<hart_debug_state_t>>::_Vector_impl_data" }
%"struct.std::_Vector_base<hart_debug_state_t, std::allocator<hart_debug_state_t>>::_Vector_impl_data" = type { ptr, ptr, ptr }
%struct.dmcontrol_t = type { i8, i8, i8, i32, i8, i8, i8 }
%struct.dmstatus_t = type { i8, i8, i8, i8, i8, i8, i8, i8, i8, i8, i8, i8, i8, i8, i8, i8, i32 }
%struct.abstractcs_t = type { i8, i32, i32, i32 }
%struct.abstractauto_t = type { i32, i32 }
%"class.std::vector.0" = type { %"struct.std::_Bvector_base" }
%"struct.std::_Bvector_base" = type { %"struct.std::_Bvector_base<std::allocator<bool>>::_Bvector_impl" }
%"struct.std::_Bvector_base<std::allocator<bool>>::_Bvector_impl" = type { %"struct.std::_Bvector_base<std::allocator<bool>>::_Bvector_impl_data" }
%"struct.std::_Bvector_base<std::allocator<bool>>::_Bvector_impl_data" = type { %"struct.std::_Bit_iterator", %"struct.std::_Bit_iterator", ptr }
%"struct.std::_Bit_iterator" = type { %"struct.std::_Bit_iterator_base.base", [4 x i8] }
%"struct.std::_Bit_iterator_base.base" = type <{ ptr, i32 }>
%struct.sbcs_t = type { i32, i8, i32, i8, i8, i32, i32, i8, i8, i8, i8, i8, i8 }

; Function Attrs: mustprogress nounwind uwtable
define noundef i32 @_ZN14debug_module_t14sb_access_bitsEv(ptr noundef nonnull align 8 dereferenceable(1372) %0) #7 align 2 {
  %2 = alloca ptr, align 8
  store ptr %0, ptr %2, align 8, !tbaa !3
  %3 = load ptr, ptr %2, align 8
  %4 = getelementptr inbounds nuw %class.debug_module_t, ptr %3, i32 0, i32 22
  %5 = getelementptr inbounds nuw %struct.sbcs_t, ptr %4, i32 0, i32 2
  %6 = load i32, ptr %5, align 8, !tbaa !227
  %7 = shl i32 8, %6
  ret i32 %7
}

; Function Attrs: mustprogress nounwind uwtable
define void @_ZN14debug_module_t16sb_autoincrementEv(ptr noundef nonnull align 8 dereferenceable(1372) %0) #7 align 2 {
  %2 = alloca ptr, align 8
  %3 = alloca i64, align 8
  %4 = alloca i32, align 4
  store ptr %0, ptr %2, align 8, !tbaa !3
  %5 = load ptr, ptr %2, align 8
  %6 = getelementptr inbounds nuw %class.debug_module_t, ptr %5, i32 0, i32 22
  %7 = getelementptr inbounds nuw %struct.sbcs_t, ptr %6, i32 0, i32 3
  %8 = load i8, ptr %7, align 4, !tbaa !228, !range !21, !noundef !22
  %9 = trunc i8 %8 to i1
  br i1 %9, label %10, label %15

10:                                               ; preds = %1
  %11 = getelementptr inbounds nuw %class.debug_module_t, ptr %5, i32 0, i32 1
  %12 = getelementptr inbounds nuw %struct.debug_module_config_t, ptr %11, i32 0, i32 1
  %13 = load i32, ptr %12, align 4, !tbaa !203
  %14 = icmp ne i32 %13, 0
  br i1 %14, label %16, label %15

15:                                               ; preds = %10, %1
  br label %62

16:                                               ; preds = %10
  call void @llvm.lifetime.start.p0(i64 8, ptr %3) #3
  %17 = getelementptr inbounds nuw %class.debug_module_t, ptr %5, i32 0, i32 23
  %18 = getelementptr inbounds [4 x i32], ptr %17, i64 0, i64 0
  %19 = load i32, ptr %18, align 8, !tbaa !15
  %20 = call noundef i32 @_ZN14debug_module_t14sb_access_bitsEv(ptr noundef nonnull align 8 dereferenceable(1372) %5)
  %21 = udiv i32 %20, 8
  %22 = add i32 %19, %21
  %23 = zext i32 %22 to i64
  store i64 %23, ptr %3, align 8, !tbaa !66
  %24 = load i64, ptr %3, align 8, !tbaa !66
  %25 = trunc i64 %24 to i32
  %26 = getelementptr inbounds nuw %class.debug_module_t, ptr %5, i32 0, i32 23
  %27 = getelementptr inbounds [4 x i32], ptr %26, i64 0, i64 0
  store i32 %25, ptr %27, align 8, !tbaa !15
  call void @llvm.lifetime.start.p0(i64 4, ptr %4) #3
  %28 = load i64, ptr %3, align 8, !tbaa !66
  %29 = lshr i64 %28, 32
  %30 = trunc i64 %29 to i32
  store i32 %30, ptr %4, align 4, !tbaa !15
  %31 = getelementptr inbounds nuw %class.debug_module_t, ptr %5, i32 0, i32 23
  %32 = getelementptr inbounds [4 x i32], ptr %31, i64 0, i64 1
  %33 = load i32, ptr %32, align 4, !tbaa !15
  %34 = load i32, ptr %4, align 4, !tbaa !15
  %35 = add i32 %33, %34
  %36 = zext i32 %35 to i64
  store i64 %36, ptr %3, align 8, !tbaa !66
  %37 = load i64, ptr %3, align 8, !tbaa !66
  %38 = trunc i64 %37 to i32
  %39 = getelementptr inbounds nuw %class.debug_module_t, ptr %5, i32 0, i32 23
  %40 = getelementptr inbounds [4 x i32], ptr %39, i64 0, i64 1
  store i32 %38, ptr %40, align 4, !tbaa !15
  %41 = load i64, ptr %3, align 8, !tbaa !66
  %42 = lshr i64 %41, 32
  %43 = trunc i64 %42 to i32
  store i32 %43, ptr %4, align 4, !tbaa !15
  %44 = getelementptr inbounds nuw %class.debug_module_t, ptr %5, i32 0, i32 23
  %45 = getelementptr inbounds [4 x i32], ptr %44, i64 0, i64 2
  %46 = load i32, ptr %45, align 8, !tbaa !15
  %47 = load i32, ptr %4, align 4, !tbaa !15
  %48 = add i32 %46, %47
  %49 = zext i32 %48 to i64
  store i64 %49, ptr %3, align 8, !tbaa !66
  %50 = load i64, ptr %3, align 8, !tbaa !66
  %51 = trunc i64 %50 to i32
  %52 = getelementptr inbounds nuw %class.debug_module_t, ptr %5, i32 0, i32 23
  %53 = getelementptr inbounds [4 x i32], ptr %52, i64 0, i64 2
  store i32 %51, ptr %53, align 8, !tbaa !15
  %54 = load i64, ptr %3, align 8, !tbaa !66
  %55 = lshr i64 %54, 32
  %56 = trunc i64 %55 to i32
  store i32 %56, ptr %4, align 4, !tbaa !15
  %57 = load i32, ptr %4, align 4, !tbaa !15
  %58 = getelementptr inbounds nuw %class.debug_module_t, ptr %5, i32 0, i32 23
  %59 = getelementptr inbounds [4 x i32], ptr %58, i64 0, i64 3
  %60 = load i32, ptr %59, align 4, !tbaa !15
  %61 = add i32 %60, %57
  store i32 %61, ptr %59, align 4, !tbaa !15
  call void @llvm.lifetime.end.p0(i64 4, ptr %4) #3
  call void @llvm.lifetime.end.p0(i64 8, ptr %3) #3
  br label %62

62:                                               ; preds = %16, %15
  ret void
}