; Function Attrs: mustprogress nofree norecurse nosync nounwind willreturn memory(argmem: readwrite) uwtable
define void @_ZN14debug_module_t16sb_autoincrementEv(ptr noundef nonnull align 8 captures(none) dereferenceable(1372) %0) local_unnamed_addr #15 align 2 {
  %2 = getelementptr inbounds nuw i8, ptr %0, i64 1292
  %3 = load i8, ptr %2, align 4, !tbaa !206, !range !14, !noundef !15
  %4 = trunc nuw i8 %3 to i1
  %5 = getelementptr inbounds nuw i8, ptr %0, i64 12
  %6 = load i32, ptr %5, align 4
  %.not = icmp ne i32 %6, 0
  %or.cond.not = select i1 %4, i1 %.not, i1 false
  br i1 %or.cond.not, label %7, label %15

7:                                                ; preds = %1
  %8 = getelementptr inbounds nuw i8, ptr %0, i64 1312
  %9 = load i32, ptr %8, align 8, !tbaa !7
  %10 = getelementptr inbounds nuw i8, ptr %0, i64 1288
  %11 = load i32, ptr %10, align 8, !tbaa !205
  %12 = shl i32 8, %11
  %13 = lshr exact i32 %12, 3
  %14 = add i32 %13, %9
  store i32 %14, ptr %8, align 8, !tbaa !7
  br label %15

15:                                               ; preds = %1, %7
  ret void
}